(lp0
(lp1
F0.0
aF0.0
aF0.0
aF0.0
aa(lp2
F0.0
aF0.0
aF0.0
aF0.0
aa(lp3
F0.0
aF0.0
aF0.0
aF0.0
aa(lp4
F0.0
aF0.0
aF0.0
aF0.0
aa(lp5
F0.0
aF0.0
aF0.0
aF0.0
aa(lp6
F0.0
aF0.0
aF0.0
aF0.0
aa(lp7
F0.0
aF0.0
aF0.0
aF0.0
aa(lp8
F-4.231107772971006
aF-4.183679380736913
aF-4.119795202059996
aF-4.146263645803313
aa(lp9
F-3.964984524953154
aF-3.963211658888519
aF-3.9901793884345733
aF-3.919428050841344
aa(lp10
F-3.7419381995983247
aF-3.5910386532505467
aF-3.618790305685066
aF-3.6503988357451256
aa(lp11
F-3.6295756655415428
aF-3.40042571957304
aF-3.544834524001824
aF-3.5696995553315043
aa(lp12
F0.0
aF0.0
aF0.0
aF0.0
aa(lp13
F0.0
aF0.0
aF0.0
aF0.0
aa(lp14
F-3.8583498416652775
aF-3.7859469770566547
aF-3.829380006135442
aF-3.848410911377295
aa(lp15
F-3.667367554108512
aF-3.5519064989200717
aF-3.6031827306330144
aF-3.528162359784835
aa(lp16
F-3.3149863402991318
aF-2.3353769115192615
aF-3.3564220613663154
aF-3.1799492077791167
aa(lp17
F-3.0397703234095985
aF-1.9052626363374476
aF-3.151870567281154
aF-3.0863723834422876
aa(lp18
F0.0
aF0.0
aF0.0
aF0.0
aa(lp19
F0.0
aF0.0
aF0.0
aF0.0
aa(lp20
F-3.5357668014918544
aF-3.532972000521519
aF-3.551935876814243
aF-3.4860457411751593
aa(lp21
F-3.177580576852081
aF-2.4734847182244257
aF-3.2922326329863716
aF-3.095840656303201
aa(lp22
F-2.9276012544263343
aF-0.4690402940544507
aF-2.7563861204821607
aF-2.4008387850492054
aa(lp23
F-2.8241607889553735
aF0.16951244495238701
aF-2.418475121483413
aF-2.4180065575781526
aa(lp24
F0.0
aF0.0
aF0.0
aF0.0
aa(lp25
F0.0
aF0.0
aF0.0
aF0.0
aa(lp26
F-3.1183617301581004
aF-3.2793589182897027
aF-3.1622715576401275
aF-1.938063799004058
aa(lp27
F-2.810612234046968
aF-27.1
aF-2.90904441545084
aF0.00040982474634963795
aa(lp28
F-2.556556394987386
aF1.3753625719860136
aF-3.301280815636423
aF-1.6850300607111226
aa(lp29
F-1.9393517981063162
aF2.6686081642201462
aF-1.9100869405967023
aF-1.6022368123917257
aa(lp30
F0.0
aF0.0
aF0.0
aF0.0
aa(lp31
F0.0
aF0.0
aF0.0
aF0.0
aa(lp32
F-3.332474178417042
aF-4.446358771593213
aF-4.867670716061979
aF-27.1
aa(lp33
F0.0
aF0.0
aF0.0
aF0.0
aa(lp34
F-1.3864561532451412
aF-1.561767158336376
aF-10.0
aF2.736148262956449
aa(lp35
F-1.2162555635788925
aF4.4533351545767585
aF-0.5848641218836427
aF-0.9176033505703756
aa(lp36
F0.0
aF0.0
aF0.0
aF0.0
aa(lp37
F0.0
aF0.0
aF0.0
aF0.0
aa(lp38
F-3.449694258763088
aF-34.39
aF-3.4781192812149704
aF-4.748545347640108
aa(lp39
F-34.39
aF-1.5868336322469865
aF-2.3856130638963795
aF-0.1675471552141652
aa(lp40
F-1.3805559099575007
aF3.2895855202292634
aF-1.2435237079286594
aF-1.1611557602699036
aa(lp41
F-0.3292332892227551
aF5.808650668931583
aF-0.7933849258957073
aF1.2647633867182677
aa(lp42
F0.0
aF0.0
aF0.0
aF0.0
aa(lp43
F0.0
aF0.0
aF0.0
aF0.0
aa(lp44
F0.0
aF0.0
aF0.0
aF0.0
aa(lp45
F-1.7687791591980078
aF-1.675689482527493
aF-10.0
aF4.128173627186516
aa(lp46
F-0.8704281372952901
aF-0.25187297112125934
aF-0.7714323579088381
aF6.335415623841791
aa(lp47
F1.5496579041678822
aF7.57719863151297
aF1.9724350493215728
aF2.2425268321406167
aa(lp48
F0.0
aF0.0
aF0.0
aF0.0
aa(lp49
F0.0
aF0.0
aF0.0
aF0.0
aa(lp50
F0.0
aF0.0
aF0.0
aF0.0
aa(lp51
F0.7204980116529467
aF-1.3760796934902406
aF-19.0
aF-1.49882607665032
aa(lp52
F-0.5299926690000001
aF-19.0
aF-0.49276572
aF5.560957106756916
aa(lp53
F2.045258133645854
aF8.99863424727096
aF0.9882433069515852
aF1.118236649879771
aa(lp54
F0.0
aF0.0
aF0.0
aF0.0
aa(lp55
F0.0
aF0.0
aF0.0
aF0.0
aa(lp56
F-34.39
aF-2.180238128852417
aF-3.600500972040965
aF-2.199325956845784
aa(lp57
F-1.3372672547976374
aF-3.538518461774733
aF-1.708409319301067
aF-10.0
aa(lp58
F0.0
aF0.0
aF0.0
aF0.0
aa(lp59
F2.1914455373700013
aF9.999999999985913
aF-27.1
aF5.506106372020381
aa(lp60
F0.0
aF0.0
aF0.0
aF0.0
aa(lp61
F0.0
aF0.0
aF0.0
aF0.0
aa(lp62
F-2.277392389901157
aF-2.242764254682027
aF-2.3296680754049444
aF-2.5304584691
aa(lp63
F-1.5918399118700939
aF-1.5398444000000002
aF-1.5992918582567792
aF-34.39
aa(lp64
F0.0
aF0.0
aF0.0
aF0.0
aa(lp65
F0.0
aF0.0
aF0.0
aF0.0
aa(lp66
F0.0
aF0.0
aF0.0
aF0.0
aa(lp67
F0.0
aF0.0
aF0.0
aF0.0
aa(lp68
F-1.952800244618619
aF-1.1503083269424246
aF-1.62464110119731
aF-1.6224495115365711
aa(lp69
F-1.5500834207957352
aF-0.4395355653060049
aF-1.3344633154183967
aF-19.0
aa(lp70
F0.0
aF0.0
aF0.0
aF0.0
aa(lp71
F9.999999989246945
aF1.5487293500200585
aF-61.2579511
aF3.092006536243312
aa(lp72
F0.0
aF0.0
aF0.0
aF0.0
aa(lp73
F0.0
aF0.0
aF0.0
aF0.0
aa(lp74
F-1.197538182103889
aF-1.3495024672564586
aF-1.4441446102572473
aF0.8636049016797496
aa(lp75
F-0.947324703696973
aF-0.8778535426519579
aF-0.8440974063
aF3.9229602262973104
aa(lp76
F-19.0
aF-0.45989346400000003
aF-0.38629297276076835
aF6.989591495104035
aa(lp77
F8.991698763052185
aF1.522563037883281
aF-0.9334747806654925
aF2.0130718354718677
aa(lp78
F0.0
aF0.0
aF0.0
aF0.0
aa(lp79
F0.0
aF0.0
aF0.0
aF0.0
aa(lp80
F-1.4092862354757987
aF-1.3956970077477797
aF-1.4249608807496645
aF-0.33608410796669674
aa(lp81
F-1.0492815726005789
aF-1.2027377311953407
aF-1.1081777480534187
aF2.0258378421332077
aa(lp82
F0.30877550200893583
aF-0.4763024543850459
aF-0.6982654848162719
aF5.485444551915597
aa(lp83
F7.747924962350552
aF-0.18534485464296876
aF-0.1905638107969207
aF0.5789001704979541
aa(lp84
F0.0
aF0.0
aF0.0
aF0.0
aa(lp85
F0.0
aF0.0
aF0.0
aF0.0
aa(lp86
F-1.7300192222759223
aF-1.8272176074175581
aF-1.7303286596031593
aF-1.6483397892989666
aa(lp87
F-1.3410406059295674
aF-1.4696472342407094
aF-1.6157394094154527
aF-0.10238852237828255
aa(lp88
F3.1475022406327047
aF-1.1747976811057532
aF-1.296077331932186
aF-0.941777272485073
aa(lp89
F4.14744641920063
aF-0.7492607514180816
aF-0.7542622637000002
aF-0.8594985843619001
aa(lp90
F0.0
aF0.0
aF0.0
aF0.0
aa(lp91
F0.0
aF0.0
aF0.0
aF0.0
aa(lp92
F-2.1819106864128455
aF-2.2524103067157313
aF-2.3062936618868903
aF-2.1492814067830603
aa(lp93
F-1.814182402420812
aF-1.9484133846231213
aF-1.907190123336625
aF-1.505813631331697
aa(lp94
F0.45973151929054357
aF-1.6190271491287869
aF-1.5610762025050444
aF-1.4630620281760895
aa(lp95
F0.6576398278567299
aF-1.2013200726896816
aF-1.2660403398982962
aF-1.0665230184
aa(lp96
F0.0
aF0.0
aF0.0
aF0.0
aa(lp97
F0.0
aF0.0
aF0.0
aF0.0
aa(lp98
F-2.5023705019385023
aF-2.498607265012241
aF-2.4329285862541288
aF-2.373944611118885
aa(lp99
F-2.3189584659053972
aF-2.3082578532105753
aF-2.371587120539682
aF-2.2983191711542124
aa(lp100
F0.0
aF0.0
aF0.0
aF0.0
aa(lp101
F-1.2223904983722387
aF-1.50926741900505
aF-1.638224723165549
aF-1.6831105132356707
aa(lp102
F0.0
aF0.0
aF0.0
aF0.0
aa(lp103
F0.0
aF0.0
aF0.0
aF0.0
aa(lp104
F0.0
aF0.0
aF0.0
aF0.0
aa(lp105
F0.0
aF0.0
aF0.0
aF0.0
aa(lp106
F0.0
aF0.0
aF0.0
aF0.0
aa(lp107
F0.0
aF0.0
aF0.0
aF0.0
aa(lp108
F0.0
aF0.0
aF0.0
aF0.0
aa.